
benchmarksO3/mmmRV32IM.elf:     file format elf32-littleriscv


Disassembly of section .text:

00400000 <_start>:
  400000:	4c0000ef          	jal	x1,4004c0 <main>
  400004:	00050113          	addi	x2,x10,0
  400008:	00058193          	addi	x3,x11,0
  40000c:	00a00513          	addi	x10,x0,10
  400010:	00000073          	ecall

00400014 <init>:
  400014:	fd010113          	addi	x2,x2,-48
  400018:	100006b7          	lui	x13,0x10000
  40001c:	10000737          	lui	x14,0x10000
  400020:	100017b7          	lui	x15,0x10001
  400024:	02812623          	sw	x8,44(x2)
  400028:	02912423          	sw	x9,40(x2)
  40002c:	03212223          	sw	x18,36(x2)
  400030:	03312023          	sw	x19,32(x2)
  400034:	01412e23          	sw	x20,28(x2)
  400038:	01512c23          	sw	x21,24(x2)
  40003c:	01612a23          	sw	x22,20(x2)
  400040:	01712823          	sw	x23,16(x2)
  400044:	01812623          	sw	x24,12(x2)
  400048:	01912423          	sw	x25,8(x2)
  40004c:	01a12223          	sw	x26,4(x2)
  400050:	01b12023          	sw	x27,0(x2)
  400054:	00068693          	addi	x13,x13,0 # 10000000 <A>
  400058:	40070713          	addi	x14,x14,1024 # 10000400 <B>
  40005c:	80078793          	addi	x15,x15,-2048 # 10000800 <C>
  400060:	00000593          	addi	x11,x0,0
  400064:	00000613          	addi	x12,x0,0
  400068:	00000513          	addi	x10,x0,0
  40006c:	00010837          	lui	x16,0x10
  400070:	00180893          	addi	x17,x16,1 # 10001 <_start-0x3effff>
  400074:	01158db3          	add	x27,x11,x17
  400078:	00280893          	addi	x17,x16,2
  40007c:	01158cb3          	add	x25,x11,x17
  400080:	00380893          	addi	x17,x16,3
  400084:	01158bb3          	add	x23,x11,x17
  400088:	00480893          	addi	x17,x16,4
  40008c:	01158ab3          	add	x21,x11,x17
  400090:	00580893          	addi	x17,x16,5
  400094:	011589b3          	add	x19,x11,x17
  400098:	00680893          	addi	x17,x16,6
  40009c:	011584b3          	add	x9,x11,x17
  4000a0:	00780893          	addi	x17,x16,7
  4000a4:	011583b3          	add	x7,x11,x17
  4000a8:	00880893          	addi	x17,x16,8
  4000ac:	01158fb3          	add	x31,x11,x17
  4000b0:	00980893          	addi	x17,x16,9
  4000b4:	01158eb3          	add	x29,x11,x17
  4000b8:	00a80893          	addi	x17,x16,10
  4000bc:	00b80813          	addi	x16,x16,11
  4000c0:	01058833          	add	x16,x11,x16
  4000c4:	00972a23          	sw	x9,20(x14)
  4000c8:	000104b7          	lui	x9,0x10
  4000cc:	03072423          	sw	x16,40(x14)
  4000d0:	00c48813          	addi	x16,x9,12 # 1000c <_start-0x3efff4>
  4000d4:	00772c23          	sw	x7,24(x14)
  4000d8:	010583b3          	add	x7,x11,x16
  4000dc:	00d48813          	addi	x16,x9,13
  4000e0:	01f72e23          	sw	x31,28(x14)
  4000e4:	01058fb3          	add	x31,x11,x16
  4000e8:	00e48813          	addi	x16,x9,14
  4000ec:	01158333          	add	x6,x11,x17
  4000f0:	03d72023          	sw	x29,32(x14)
  4000f4:	01058eb3          	add	x29,x11,x16
  4000f8:	00f48813          	addi	x16,x9,15
  4000fc:	00660413          	addi	x8,x12,6
  400100:	00760293          	addi	x5,x12,7
  400104:	00860f13          	addi	x30,x12,8
  400108:	00960e13          	addi	x28,x12,9
  40010c:	00a60893          	addi	x17,x12,10
  400110:	02672223          	sw	x6,36(x14)
  400114:	00160d13          	addi	x26,x12,1
  400118:	01058333          	add	x6,x11,x16
  40011c:	00260c13          	addi	x24,x12,2
  400120:	00360b13          	addi	x22,x12,3
  400124:	00460a13          	addi	x20,x12,4
  400128:	00560913          	addi	x18,x12,5
  40012c:	01048813          	addi	x16,x9,16
  400130:	00c6a023          	sw	x12,0(x13)
  400134:	0086ac23          	sw	x8,24(x13)
  400138:	0056ae23          	sw	x5,28(x13)
  40013c:	03e6a023          	sw	x30,32(x13)
  400140:	03c6a223          	sw	x28,36(x13)
  400144:	0316a423          	sw	x17,40(x13)
  400148:	01058833          	add	x16,x11,x16
  40014c:	01b72023          	sw	x27,0(x14)
  400150:	0007a023          	sw	x0,0(x15)
  400154:	01a6a223          	sw	x26,4(x13)
  400158:	01972223          	sw	x25,4(x14)
  40015c:	0007a223          	sw	x0,4(x15)
  400160:	0186a423          	sw	x24,8(x13)
  400164:	01772423          	sw	x23,8(x14)
  400168:	0007a423          	sw	x0,8(x15)
  40016c:	0166a623          	sw	x22,12(x13)
  400170:	01572623          	sw	x21,12(x14)
  400174:	0007a623          	sw	x0,12(x15)
  400178:	0146a823          	sw	x20,16(x13)
  40017c:	01372823          	sw	x19,16(x14)
  400180:	0007a823          	sw	x0,16(x15)
  400184:	0126aa23          	sw	x18,20(x13)
  400188:	0007aa23          	sw	x0,20(x15)
  40018c:	0007ac23          	sw	x0,24(x15)
  400190:	0007ae23          	sw	x0,28(x15)
  400194:	0207a023          	sw	x0,32(x15)
  400198:	0207a223          	sw	x0,36(x15)
  40019c:	00b60413          	addi	x8,x12,11
  4001a0:	00c60293          	addi	x5,x12,12
  4001a4:	00d60f13          	addi	x30,x12,13
  4001a8:	00e60e13          	addi	x28,x12,14
  4001ac:	00f60893          	addi	x17,x12,15
  4001b0:	0207a423          	sw	x0,40(x15)
  4001b4:	00150513          	addi	x10,x10,1
  4001b8:	03072e23          	sw	x16,60(x14)
  4001bc:	0286a623          	sw	x8,44(x13)
  4001c0:	02772623          	sw	x7,44(x14)
  4001c4:	0207a623          	sw	x0,44(x15)
  4001c8:	0256a823          	sw	x5,48(x13)
  4001cc:	03f72823          	sw	x31,48(x14)
  4001d0:	0207a823          	sw	x0,48(x15)
  4001d4:	03e6aa23          	sw	x30,52(x13)
  4001d8:	03d72a23          	sw	x29,52(x14)
  4001dc:	0207aa23          	sw	x0,52(x15)
  4001e0:	03c6ac23          	sw	x28,56(x13)
  4001e4:	02672c23          	sw	x6,56(x14)
  4001e8:	0207ac23          	sw	x0,56(x15)
  4001ec:	0316ae23          	sw	x17,60(x13)
  4001f0:	0207ae23          	sw	x0,60(x15)
  4001f4:	01000813          	addi	x16,x0,16
  4001f8:	01060613          	addi	x12,x12,16
  4001fc:	04068693          	addi	x13,x13,64
  400200:	009585b3          	add	x11,x11,x9
  400204:	04070713          	addi	x14,x14,64
  400208:	04078793          	addi	x15,x15,64
  40020c:	e70510e3          	bne	x10,x16,40006c <init+0x58>
  400210:	02c12403          	lw	x8,44(x2)
  400214:	02812483          	lw	x9,40(x2)
  400218:	02412903          	lw	x18,36(x2)
  40021c:	02012983          	lw	x19,32(x2)
  400220:	01c12a03          	lw	x20,28(x2)
  400224:	01812a83          	lw	x21,24(x2)
  400228:	01412b03          	lw	x22,20(x2)
  40022c:	01012b83          	lw	x23,16(x2)
  400230:	00c12c03          	lw	x24,12(x2)
  400234:	00812c83          	lw	x25,8(x2)
  400238:	00412d03          	lw	x26,4(x2)
  40023c:	00012d83          	lw	x27,0(x2)
  400240:	03010113          	addi	x2,x2,48
  400244:	00008067          	jalr	x0,0(x1)

00400248 <mmm.constprop.0>:
  400248:	100007b7          	lui	x15,0x10000
  40024c:	fa010113          	addi	x2,x2,-96
  400250:	00078793          	addi	x15,x15,0 # 10000000 <A>
  400254:	02f12423          	sw	x15,40(x2)
  400258:	100017b7          	lui	x15,0x10001
  40025c:	80078793          	addi	x15,x15,-2048 # 10000800 <C>
  400260:	02f12223          	sw	x15,36(x2)
  400264:	100007b7          	lui	x15,0x10000
  400268:	40078793          	addi	x15,x15,1024 # 10000400 <B>
  40026c:	02f12623          	sw	x15,44(x2)
  400270:	100007b7          	lui	x15,0x10000
  400274:	44078793          	addi	x15,x15,1088 # 10000440 <B+0x40>
  400278:	02f12023          	sw	x15,32(x2)
  40027c:	02812783          	lw	x15,40(x2)
  400280:	04812e23          	sw	x8,92(x2)
  400284:	04912c23          	sw	x9,88(x2)
  400288:	05212a23          	sw	x18,84(x2)
  40028c:	05312823          	sw	x19,80(x2)
  400290:	05412623          	sw	x20,76(x2)
  400294:	05512423          	sw	x21,72(x2)
  400298:	05612223          	sw	x22,68(x2)
  40029c:	05712023          	sw	x23,64(x2)
  4002a0:	03812e23          	sw	x24,60(x2)
  4002a4:	03912c23          	sw	x25,56(x2)
  4002a8:	03a12a23          	sw	x26,52(x2)
  4002ac:	03b12823          	sw	x27,48(x2)
  4002b0:	0207a703          	lw	x14,32(x15)
  4002b4:	0007ad83          	lw	x27,0(x15)
  4002b8:	0047ad03          	lw	x26,4(x15)
  4002bc:	00e12023          	sw	x14,0(x2)
  4002c0:	0247a703          	lw	x14,36(x15)
  4002c4:	0087ac83          	lw	x25,8(x15)
  4002c8:	00c7ac03          	lw	x24,12(x15)
  4002cc:	00e12223          	sw	x14,4(x2)
  4002d0:	0287a703          	lw	x14,40(x15)
  4002d4:	0107ab83          	lw	x23,16(x15)
  4002d8:	0147ab03          	lw	x22,20(x15)
  4002dc:	00e12423          	sw	x14,8(x2)
  4002e0:	02c7a703          	lw	x14,44(x15)
  4002e4:	0187aa83          	lw	x21,24(x15)
  4002e8:	01c7aa03          	lw	x20,28(x15)
  4002ec:	00e12623          	sw	x14,12(x2)
  4002f0:	0307a703          	lw	x14,48(x15)
  4002f4:	02c12903          	lw	x18,44(x2)
  4002f8:	02412983          	lw	x19,36(x2)
  4002fc:	00e12823          	sw	x14,16(x2)
  400300:	0347a703          	lw	x14,52(x15)
  400304:	00e12a23          	sw	x14,20(x2)
  400308:	0387a703          	lw	x14,56(x15)
  40030c:	03c7a783          	lw	x15,60(x15)
  400310:	00e12c23          	sw	x14,24(x2)
  400314:	00f12e23          	sw	x15,28(x2)
  400318:	00092783          	lw	x15,0(x18)
  40031c:	04092483          	lw	x9,64(x18)
  400320:	08092383          	lw	x7,128(x18)
  400324:	0c092283          	lw	x5,192(x18)
  400328:	02fd87b3          	mul	x15,x27,x15
  40032c:	10092f83          	lw	x31,256(x18)
  400330:	14092f03          	lw	x30,320(x18)
  400334:	18092e83          	lw	x29,384(x18)
  400338:	0009a403          	lw	x8,0(x19)
  40033c:	1c092e03          	lw	x28,448(x18)
  400340:	20092303          	lw	x6,512(x18)
  400344:	28092803          	lw	x16,640(x18)
  400348:	2c092503          	lw	x10,704(x18)
  40034c:	30092583          	lw	x11,768(x18)
  400350:	029d04b3          	mul	x9,x26,x9
  400354:	24092883          	lw	x17,576(x18)
  400358:	34092603          	lw	x12,832(x18)
  40035c:	38092683          	lw	x13,896(x18)
  400360:	3c092703          	lw	x14,960(x18)
  400364:	00498993          	addi	x19,x19,4
  400368:	00490913          	addi	x18,x18,4
  40036c:	027c83b3          	mul	x7,x25,x7
  400370:	009787b3          	add	x15,x15,x9
  400374:	008787b3          	add	x15,x15,x8
  400378:	025c02b3          	mul	x5,x24,x5
  40037c:	007787b3          	add	x15,x15,x7
  400380:	03fb8fb3          	mul	x31,x23,x31
  400384:	005787b3          	add	x15,x15,x5
  400388:	03eb0f33          	mul	x30,x22,x30
  40038c:	01f787b3          	add	x15,x15,x31
  400390:	03da8eb3          	mul	x29,x21,x29
  400394:	01e787b3          	add	x15,x15,x30
  400398:	01d787b3          	add	x15,x15,x29
  40039c:	00012e83          	lw	x29,0(x2)
  4003a0:	03ca0e33          	mul	x28,x20,x28
  4003a4:	026e8333          	mul	x6,x29,x6
  4003a8:	01c787b3          	add	x15,x15,x28
  4003ac:	00412e03          	lw	x28,4(x2)
  4003b0:	00678333          	add	x6,x15,x6
  4003b4:	00812783          	lw	x15,8(x2)
  4003b8:	031e08b3          	mul	x17,x28,x17
  4003bc:	03078833          	mul	x16,x15,x16
  4003c0:	00c12783          	lw	x15,12(x2)
  4003c4:	01130333          	add	x6,x6,x17
  4003c8:	02a78533          	mul	x10,x15,x10
  4003cc:	01012783          	lw	x15,16(x2)
  4003d0:	01030833          	add	x16,x6,x16
  4003d4:	02b785b3          	mul	x11,x15,x11
  4003d8:	01412783          	lw	x15,20(x2)
  4003dc:	00a80533          	add	x10,x16,x10
  4003e0:	02c78633          	mul	x12,x15,x12
  4003e4:	01812783          	lw	x15,24(x2)
  4003e8:	00b505b3          	add	x11,x10,x11
  4003ec:	02d786b3          	mul	x13,x15,x13
  4003f0:	01c12783          	lw	x15,28(x2)
  4003f4:	00c58633          	add	x12,x11,x12
  4003f8:	02e78733          	mul	x14,x15,x14
  4003fc:	00d606b3          	add	x13,x12,x13
  400400:	02012783          	lw	x15,32(x2)
  400404:	00e68733          	add	x14,x13,x14
  400408:	fee9ae23          	sw	x14,-4(x19)
  40040c:	f12796e3          	bne	x15,x18,400318 <mmm.constprop.0+0xd0>
  400410:	02412703          	lw	x14,36(x2)
  400414:	02812783          	lw	x15,40(x2)
  400418:	04070713          	addi	x14,x14,64
  40041c:	04078793          	addi	x15,x15,64
  400420:	02e12223          	sw	x14,36(x2)
  400424:	10000737          	lui	x14,0x10000
  400428:	02f12423          	sw	x15,40(x2)
  40042c:	40070713          	addi	x14,x14,1024 # 10000400 <B>
  400430:	e8f710e3          	bne	x14,x15,4002b0 <mmm.constprop.0+0x68>
  400434:	05c12403          	lw	x8,92(x2)
  400438:	05812483          	lw	x9,88(x2)
  40043c:	05412903          	lw	x18,84(x2)
  400440:	05012983          	lw	x19,80(x2)
  400444:	04c12a03          	lw	x20,76(x2)
  400448:	04812a83          	lw	x21,72(x2)
  40044c:	04412b03          	lw	x22,68(x2)
  400450:	04012b83          	lw	x23,64(x2)
  400454:	03c12c03          	lw	x24,60(x2)
  400458:	03812c83          	lw	x25,56(x2)
  40045c:	03412d03          	lw	x26,52(x2)
  400460:	03012d83          	lw	x27,48(x2)
  400464:	06010113          	addi	x2,x2,96
  400468:	00008067          	jalr	x0,0(x1)

0040046c <matrix_add_reduce>:
  40046c:	04a05263          	bge	x0,x10,4004b0 <matrix_add_reduce+0x44>
  400470:	00259313          	slli	x6,x11,0x2
  400474:	00000693          	addi	x13,x0,0
  400478:	00000893          	addi	x17,x0,0
  40047c:	00060713          	addi	x14,x12,0
  400480:	00000793          	addi	x15,x0,0
  400484:	00b05c63          	bge	x0,x11,40049c <matrix_add_reduce+0x30>
  400488:	00072803          	lw	x16,0(x14)
  40048c:	00178793          	addi	x15,x15,1
  400490:	00470713          	addi	x14,x14,4
  400494:	010686b3          	add	x13,x13,x16
  400498:	fef598e3          	bne	x11,x15,400488 <matrix_add_reduce+0x1c>
  40049c:	00188893          	addi	x17,x17,1
  4004a0:	00660633          	add	x12,x12,x6
  4004a4:	fd151ce3          	bne	x10,x17,40047c <matrix_add_reduce+0x10>
  4004a8:	00068513          	addi	x10,x13,0
  4004ac:	00008067          	jalr	x0,0(x1)
  4004b0:	00000693          	addi	x13,x0,0
  4004b4:	00068513          	addi	x10,x13,0
  4004b8:	00008067          	jalr	x0,0(x1)
  4004bc:	0000                	unimp
	...

004004c0 <main>:
  4004c0:	ff010113          	addi	x2,x2,-16
  4004c4:	00112623          	sw	x1,12(x2)
  4004c8:	b4dff0ef          	jal	x1,400014 <init>
  4004cc:	00000097          	auipc	x1,0x0
  4004d0:	d7c080e7          	jalr	x1,-644(x1) # 400248 <mmm.constprop.0>
  4004d4:	00c12083          	lw	x1,12(x2)
  4004d8:	10001637          	lui	x12,0x10001
  4004dc:	80060613          	addi	x12,x12,-2048 # 10000800 <C>
  4004e0:	01000593          	addi	x11,x0,16
  4004e4:	01000513          	addi	x10,x0,16
  4004e8:	01010113          	addi	x2,x2,16
  4004ec:	f81ff06f          	jal	x0,40046c <matrix_add_reduce>
  4004f0:	0000                	unimp
	...
