
benchmarks/mixed.elf:     file format elf32-littleriscv


Disassembly of section .text:

00400000 <_start>:
  400000:	6ac000ef          	jal	x1,4006ac <main>
  400004:	00050113          	addi	x2,x10,0
  400008:	00058193          	addi	x3,x11,0
  40000c:	00a00513          	addi	x10,x0,10
  400010:	00000073          	ecall

00400014 <fibi0>:
  400014:	02050c63          	beq	x10,x0,40004c <fibi0+0x38>
  400018:	00100793          	addi	x15,x0,1
  40001c:	02f50863          	beq	x10,x15,40004c <fibi0+0x38>
  400020:	02a7d463          	bge	x15,x10,400048 <fibi0+0x34>
  400024:	00200713          	addi	x14,x0,2
  400028:	00000613          	addi	x12,x0,0
  40002c:	00f606b3          	add	x13,x12,x15
  400030:	00170713          	addi	x14,x14,1
  400034:	00078613          	addi	x12,x15,0
  400038:	00068793          	addi	x15,x13,0
  40003c:	fee558e3          	bge	x10,x14,40002c <fibi0+0x18>
  400040:	00068513          	addi	x10,x13,0
  400044:	00008067          	jalr	x0,0(x1)
  400048:	fff00513          	addi	x10,x0,-1
  40004c:	00008067          	jalr	x0,0(x1)

00400050 <fibi1>:
  400050:	02050c63          	beq	x10,x0,400088 <fibi1+0x38>
  400054:	00100793          	addi	x15,x0,1
  400058:	02f50863          	beq	x10,x15,400088 <fibi1+0x38>
  40005c:	02a7d463          	bge	x15,x10,400084 <fibi1+0x34>
  400060:	00200713          	addi	x14,x0,2
  400064:	00000613          	addi	x12,x0,0
  400068:	00f606b3          	add	x13,x12,x15
  40006c:	00170713          	addi	x14,x14,1
  400070:	00078613          	addi	x12,x15,0
  400074:	00068793          	addi	x15,x13,0
  400078:	fee558e3          	bge	x10,x14,400068 <fibi1+0x18>
  40007c:	00068513          	addi	x10,x13,0
  400080:	00008067          	jalr	x0,0(x1)
  400084:	fff00513          	addi	x10,x0,-1
  400088:	00008067          	jalr	x0,0(x1)

0040008c <fibi2>:
  40008c:	02050c63          	beq	x10,x0,4000c4 <fibi2+0x38>
  400090:	00100793          	addi	x15,x0,1
  400094:	02f50863          	beq	x10,x15,4000c4 <fibi2+0x38>
  400098:	02a7d463          	bge	x15,x10,4000c0 <fibi2+0x34>
  40009c:	00200713          	addi	x14,x0,2
  4000a0:	00000613          	addi	x12,x0,0
  4000a4:	00f606b3          	add	x13,x12,x15
  4000a8:	00170713          	addi	x14,x14,1
  4000ac:	00078613          	addi	x12,x15,0
  4000b0:	00068793          	addi	x15,x13,0
  4000b4:	fee558e3          	bge	x10,x14,4000a4 <fibi2+0x18>
  4000b8:	00068513          	addi	x10,x13,0
  4000bc:	00008067          	jalr	x0,0(x1)
  4000c0:	fff00513          	addi	x10,x0,-1
  4000c4:	00008067          	jalr	x0,0(x1)

004000c8 <fibi3>:
  4000c8:	02050c63          	beq	x10,x0,400100 <fibi3+0x38>
  4000cc:	00100793          	addi	x15,x0,1
  4000d0:	02f50863          	beq	x10,x15,400100 <fibi3+0x38>
  4000d4:	02a7d463          	bge	x15,x10,4000fc <fibi3+0x34>
  4000d8:	00200713          	addi	x14,x0,2
  4000dc:	00000613          	addi	x12,x0,0
  4000e0:	00f606b3          	add	x13,x12,x15
  4000e4:	00170713          	addi	x14,x14,1
  4000e8:	00078613          	addi	x12,x15,0
  4000ec:	00068793          	addi	x15,x13,0
  4000f0:	fee558e3          	bge	x10,x14,4000e0 <fibi3+0x18>
  4000f4:	00068513          	addi	x10,x13,0
  4000f8:	00008067          	jalr	x0,0(x1)
  4000fc:	fff00513          	addi	x10,x0,-1
  400100:	00008067          	jalr	x0,0(x1)

00400104 <fibi>:
  400104:	ff010113          	addi	x2,x2,-16
  400108:	00112623          	sw	x1,12(x2)
  40010c:	10000737          	lui	x14,0x10000
  400110:	00872783          	lw	x15,8(x14) # 10000008 <i.1288>
  400114:	00178693          	addi	x13,x15,1
  400118:	00d72423          	sw	x13,8(x14)
  40011c:	41f7d713          	srai	x14,x15,0x1f
  400120:	01e75713          	srli	x14,x14,0x1e
  400124:	00e787b3          	add	x15,x15,x14
  400128:	0037f793          	andi	x15,x15,3
  40012c:	40e787b3          	sub	x15,x15,x14
  400130:	00100713          	addi	x14,x0,1
  400134:	02e78c63          	beq	x15,x14,40016c <fibi+0x68>
  400138:	02f75063          	bge	x14,x15,400158 <fibi+0x54>
  40013c:	00200713          	addi	x14,x0,2
  400140:	02e78c63          	beq	x15,x14,400178 <fibi+0x74>
  400144:	00300713          	addi	x14,x0,3
  400148:	02e79c63          	bne	x15,x14,400180 <fibi+0x7c>
  40014c:	00000097          	auipc	x1,0x0
  400150:	f7c080e7          	jalr	x1,-132(x1) # 4000c8 <fibi3>
  400154:	00c0006f          	jal	x0,400160 <fibi+0x5c>
  400158:	02079463          	bne	x15,x0,400180 <fibi+0x7c>
  40015c:	eb9ff0ef          	jal	x1,400014 <fibi0>
  400160:	00c12083          	lw	x1,12(x2)
  400164:	01010113          	addi	x2,x2,16
  400168:	00008067          	jalr	x0,0(x1)
  40016c:	00000097          	auipc	x1,0x0
  400170:	ee4080e7          	jalr	x1,-284(x1) # 400050 <fibi1>
  400174:	fedff06f          	jal	x0,400160 <fibi+0x5c>
  400178:	f15ff0ef          	jal	x1,40008c <fibi2>
  40017c:	fe5ff06f          	jal	x0,400160 <fibi+0x5c>
  400180:	f9c00513          	addi	x10,x0,-100
  400184:	fddff06f          	jal	x0,400160 <fibi+0x5c>

00400188 <fibm0>:
  400188:	06400793          	addi	x15,x0,100
  40018c:	0aa7c063          	blt	x15,x10,40022c <fibm0+0xa4>
  400190:	0a050663          	beq	x10,x0,40023c <fibm0+0xb4>
  400194:	00100793          	addi	x15,x0,1
  400198:	0af50263          	beq	x10,x15,40023c <fibm0+0xb4>
  40019c:	e6010113          	addi	x2,x2,-416
  4001a0:	00012623          	sw	x0,12(x2)
  4001a4:	00f12823          	sw	x15,16(x2)
  4001a8:	06a7d663          	bge	x15,x10,400214 <fibm0+0x8c>
  4001ac:	00c10793          	addi	x15,x2,12
  4001b0:	00251613          	slli	x12,x10,0x2
  4001b4:	00810713          	addi	x14,x2,8
  4001b8:	00c70633          	add	x12,x14,x12
  4001bc:	0047a703          	lw	x14,4(x15)
  4001c0:	0007a683          	lw	x13,0(x15)
  4001c4:	00d70733          	add	x14,x14,x13
  4001c8:	00e7a423          	sw	x14,8(x15)
  4001cc:	00478793          	addi	x15,x15,4
  4001d0:	fec796e3          	bne	x15,x12,4001bc <fibm0+0x34>
  4001d4:	01012703          	lw	x14,16(x2)
  4001d8:	00c12683          	lw	x13,12(x2)
  4001dc:	00d70733          	add	x14,x14,x13
  4001e0:	01412683          	lw	x13,20(x2)
  4001e4:	04e69863          	bne	x13,x14,400234 <fibm0+0xac>
  4001e8:	01010713          	addi	x14,x2,16
  4001ec:	02f70463          	beq	x14,x15,400214 <fibm0+0x8c>
  4001f0:	00070613          	addi	x12,x14,0
  4001f4:	00470713          	addi	x14,x14,4
  4001f8:	00462683          	lw	x13,4(x12)
  4001fc:	00062583          	lw	x11,0(x12)
  400200:	00b686b3          	add	x13,x13,x11
  400204:	00862603          	lw	x12,8(x12)
  400208:	fed602e3          	beq	x12,x13,4001ec <fibm0+0x64>
  40020c:	ffd00513          	addi	x10,x0,-3
  400210:	0140006f          	jal	x0,400224 <fibm0+0x9c>
  400214:	00251513          	slli	x10,x10,0x2
  400218:	1a010793          	addi	x15,x2,416
  40021c:	00a78533          	add	x10,x15,x10
  400220:	e6c52503          	lw	x10,-404(x10)
  400224:	1a010113          	addi	x2,x2,416
  400228:	00008067          	jalr	x0,0(x1)
  40022c:	ffe00513          	addi	x10,x0,-2
  400230:	00008067          	jalr	x0,0(x1)
  400234:	ffd00513          	addi	x10,x0,-3
  400238:	fedff06f          	jal	x0,400224 <fibm0+0x9c>
  40023c:	00008067          	jalr	x0,0(x1)

00400240 <fibm1>:
  400240:	06400793          	addi	x15,x0,100
  400244:	0aa7c063          	blt	x15,x10,4002e4 <fibm1+0xa4>
  400248:	0a050663          	beq	x10,x0,4002f4 <fibm1+0xb4>
  40024c:	00100793          	addi	x15,x0,1
  400250:	0af50263          	beq	x10,x15,4002f4 <fibm1+0xb4>
  400254:	e6010113          	addi	x2,x2,-416
  400258:	00012623          	sw	x0,12(x2)
  40025c:	00f12823          	sw	x15,16(x2)
  400260:	06a7d663          	bge	x15,x10,4002cc <fibm1+0x8c>
  400264:	00c10793          	addi	x15,x2,12
  400268:	00251613          	slli	x12,x10,0x2
  40026c:	00810713          	addi	x14,x2,8
  400270:	00c70633          	add	x12,x14,x12
  400274:	0047a703          	lw	x14,4(x15)
  400278:	0007a683          	lw	x13,0(x15)
  40027c:	00d70733          	add	x14,x14,x13
  400280:	00e7a423          	sw	x14,8(x15)
  400284:	00478793          	addi	x15,x15,4
  400288:	fec796e3          	bne	x15,x12,400274 <fibm1+0x34>
  40028c:	01012703          	lw	x14,16(x2)
  400290:	00c12683          	lw	x13,12(x2)
  400294:	00d70733          	add	x14,x14,x13
  400298:	01412683          	lw	x13,20(x2)
  40029c:	04e69863          	bne	x13,x14,4002ec <fibm1+0xac>
  4002a0:	01010713          	addi	x14,x2,16
  4002a4:	02f70463          	beq	x14,x15,4002cc <fibm1+0x8c>
  4002a8:	00070613          	addi	x12,x14,0
  4002ac:	00470713          	addi	x14,x14,4
  4002b0:	00462683          	lw	x13,4(x12)
  4002b4:	00062583          	lw	x11,0(x12)
  4002b8:	00b686b3          	add	x13,x13,x11
  4002bc:	00862603          	lw	x12,8(x12)
  4002c0:	fed602e3          	beq	x12,x13,4002a4 <fibm1+0x64>
  4002c4:	ffd00513          	addi	x10,x0,-3
  4002c8:	0140006f          	jal	x0,4002dc <fibm1+0x9c>
  4002cc:	00251513          	slli	x10,x10,0x2
  4002d0:	1a010793          	addi	x15,x2,416
  4002d4:	00a78533          	add	x10,x15,x10
  4002d8:	e6c52503          	lw	x10,-404(x10)
  4002dc:	1a010113          	addi	x2,x2,416
  4002e0:	00008067          	jalr	x0,0(x1)
  4002e4:	ffe00513          	addi	x10,x0,-2
  4002e8:	00008067          	jalr	x0,0(x1)
  4002ec:	ffd00513          	addi	x10,x0,-3
  4002f0:	fedff06f          	jal	x0,4002dc <fibm1+0x9c>
  4002f4:	00008067          	jalr	x0,0(x1)

004002f8 <fibm2>:
  4002f8:	06400793          	addi	x15,x0,100
  4002fc:	0aa7c063          	blt	x15,x10,40039c <fibm2+0xa4>
  400300:	0a050663          	beq	x10,x0,4003ac <fibm2+0xb4>
  400304:	00100793          	addi	x15,x0,1
  400308:	0af50263          	beq	x10,x15,4003ac <fibm2+0xb4>
  40030c:	e6010113          	addi	x2,x2,-416
  400310:	00012623          	sw	x0,12(x2)
  400314:	00f12823          	sw	x15,16(x2)
  400318:	06a7d663          	bge	x15,x10,400384 <fibm2+0x8c>
  40031c:	00c10793          	addi	x15,x2,12
  400320:	00251613          	slli	x12,x10,0x2
  400324:	00810713          	addi	x14,x2,8
  400328:	00c70633          	add	x12,x14,x12
  40032c:	0047a703          	lw	x14,4(x15)
  400330:	0007a683          	lw	x13,0(x15)
  400334:	00d70733          	add	x14,x14,x13
  400338:	00e7a423          	sw	x14,8(x15)
  40033c:	00478793          	addi	x15,x15,4
  400340:	fec796e3          	bne	x15,x12,40032c <fibm2+0x34>
  400344:	01012703          	lw	x14,16(x2)
  400348:	00c12683          	lw	x13,12(x2)
  40034c:	00d70733          	add	x14,x14,x13
  400350:	01412683          	lw	x13,20(x2)
  400354:	04e69863          	bne	x13,x14,4003a4 <fibm2+0xac>
  400358:	01010713          	addi	x14,x2,16
  40035c:	02f70463          	beq	x14,x15,400384 <fibm2+0x8c>
  400360:	00070613          	addi	x12,x14,0
  400364:	00470713          	addi	x14,x14,4
  400368:	00462683          	lw	x13,4(x12)
  40036c:	00062583          	lw	x11,0(x12)
  400370:	00b686b3          	add	x13,x13,x11
  400374:	00862603          	lw	x12,8(x12)
  400378:	fed602e3          	beq	x12,x13,40035c <fibm2+0x64>
  40037c:	ffd00513          	addi	x10,x0,-3
  400380:	0140006f          	jal	x0,400394 <fibm2+0x9c>
  400384:	00251513          	slli	x10,x10,0x2
  400388:	1a010793          	addi	x15,x2,416
  40038c:	00a78533          	add	x10,x15,x10
  400390:	e6c52503          	lw	x10,-404(x10)
  400394:	1a010113          	addi	x2,x2,416
  400398:	00008067          	jalr	x0,0(x1)
  40039c:	ffe00513          	addi	x10,x0,-2
  4003a0:	00008067          	jalr	x0,0(x1)
  4003a4:	ffd00513          	addi	x10,x0,-3
  4003a8:	fedff06f          	jal	x0,400394 <fibm2+0x9c>
  4003ac:	00008067          	jalr	x0,0(x1)

004003b0 <fibm3>:
  4003b0:	06400793          	addi	x15,x0,100
  4003b4:	0aa7c063          	blt	x15,x10,400454 <fibm3+0xa4>
  4003b8:	0a050663          	beq	x10,x0,400464 <fibm3+0xb4>
  4003bc:	00100793          	addi	x15,x0,1
  4003c0:	0af50263          	beq	x10,x15,400464 <fibm3+0xb4>
  4003c4:	e6010113          	addi	x2,x2,-416
  4003c8:	00012623          	sw	x0,12(x2)
  4003cc:	00f12823          	sw	x15,16(x2)
  4003d0:	06a7d663          	bge	x15,x10,40043c <fibm3+0x8c>
  4003d4:	00c10793          	addi	x15,x2,12
  4003d8:	00251613          	slli	x12,x10,0x2
  4003dc:	00810713          	addi	x14,x2,8
  4003e0:	00c70633          	add	x12,x14,x12
  4003e4:	0047a703          	lw	x14,4(x15)
  4003e8:	0007a683          	lw	x13,0(x15)
  4003ec:	00d70733          	add	x14,x14,x13
  4003f0:	00e7a423          	sw	x14,8(x15)
  4003f4:	00478793          	addi	x15,x15,4
  4003f8:	fec796e3          	bne	x15,x12,4003e4 <fibm3+0x34>
  4003fc:	01012703          	lw	x14,16(x2)
  400400:	00c12683          	lw	x13,12(x2)
  400404:	00d70733          	add	x14,x14,x13
  400408:	01412683          	lw	x13,20(x2)
  40040c:	04e69863          	bne	x13,x14,40045c <fibm3+0xac>
  400410:	01010713          	addi	x14,x2,16
  400414:	02f70463          	beq	x14,x15,40043c <fibm3+0x8c>
  400418:	00070613          	addi	x12,x14,0
  40041c:	00470713          	addi	x14,x14,4
  400420:	00462683          	lw	x13,4(x12)
  400424:	00062583          	lw	x11,0(x12)
  400428:	00b686b3          	add	x13,x13,x11
  40042c:	00862603          	lw	x12,8(x12)
  400430:	fed602e3          	beq	x12,x13,400414 <fibm3+0x64>
  400434:	ffd00513          	addi	x10,x0,-3
  400438:	0140006f          	jal	x0,40044c <fibm3+0x9c>
  40043c:	00251513          	slli	x10,x10,0x2
  400440:	1a010793          	addi	x15,x2,416
  400444:	00a78533          	add	x10,x15,x10
  400448:	e6c52503          	lw	x10,-404(x10)
  40044c:	1a010113          	addi	x2,x2,416
  400450:	00008067          	jalr	x0,0(x1)
  400454:	ffe00513          	addi	x10,x0,-2
  400458:	00008067          	jalr	x0,0(x1)
  40045c:	ffd00513          	addi	x10,x0,-3
  400460:	fedff06f          	jal	x0,40044c <fibm3+0x9c>
  400464:	00008067          	jalr	x0,0(x1)

00400468 <fibm>:
  400468:	ff010113          	addi	x2,x2,-16
  40046c:	00112623          	sw	x1,12(x2)
  400470:	10000737          	lui	x14,0x10000
  400474:	00472783          	lw	x15,4(x14) # 10000004 <i.1340>
  400478:	00178693          	addi	x13,x15,1
  40047c:	00d72223          	sw	x13,4(x14)
  400480:	41f7d713          	srai	x14,x15,0x1f
  400484:	01e75713          	srli	x14,x14,0x1e
  400488:	00e787b3          	add	x15,x15,x14
  40048c:	0037f793          	andi	x15,x15,3
  400490:	40e787b3          	sub	x15,x15,x14
  400494:	00100713          	addi	x14,x0,1
  400498:	02e78c63          	beq	x15,x14,4004d0 <fibm+0x68>
  40049c:	02f75063          	bge	x14,x15,4004bc <fibm+0x54>
  4004a0:	00200713          	addi	x14,x0,2
  4004a4:	02e78c63          	beq	x15,x14,4004dc <fibm+0x74>
  4004a8:	00300713          	addi	x14,x0,3
  4004ac:	02e79c63          	bne	x15,x14,4004e4 <fibm+0x7c>
  4004b0:	00000097          	auipc	x1,0x0
  4004b4:	f00080e7          	jalr	x1,-256(x1) # 4003b0 <fibm3>
  4004b8:	00c0006f          	jal	x0,4004c4 <fibm+0x5c>
  4004bc:	02079463          	bne	x15,x0,4004e4 <fibm+0x7c>
  4004c0:	cc9ff0ef          	jal	x1,400188 <fibm0>
  4004c4:	00c12083          	lw	x1,12(x2)
  4004c8:	01010113          	addi	x2,x2,16
  4004cc:	00008067          	jalr	x0,0(x1)
  4004d0:	00000097          	auipc	x1,0x0
  4004d4:	d70080e7          	jalr	x1,-656(x1) # 400240 <fibm1>
  4004d8:	fedff06f          	jal	x0,4004c4 <fibm+0x5c>
  4004dc:	e1dff0ef          	jal	x1,4002f8 <fibm2>
  4004e0:	fe5ff06f          	jal	x0,4004c4 <fibm+0x5c>
  4004e4:	c1800513          	addi	x10,x0,-1000
  4004e8:	fddff06f          	jal	x0,4004c4 <fibm+0x5c>

004004ec <fibr>:
  4004ec:	ff010113          	addi	x2,x2,-16
  4004f0:	00112623          	sw	x1,12(x2)
  4004f4:	00812423          	sw	x8,8(x2)
  4004f8:	00912223          	sw	x9,4(x2)
  4004fc:	01212023          	sw	x18,0(x2)
  400500:	00a00793          	addi	x15,x0,10
  400504:	18a7cc63          	blt	x15,x10,40069c <fibr+0x1b0>
  400508:	00050413          	addi	x8,x10,0
  40050c:	06050c63          	beq	x10,x0,400584 <fibr+0x98>
  400510:	00100793          	addi	x15,x0,1
  400514:	06f50863          	beq	x10,x15,400584 <fibr+0x98>
  400518:	10000737          	lui	x14,0x10000
  40051c:	00072783          	lw	x15,0(x14) # 10000000 <i.1348>
  400520:	00778793          	addi	x15,x15,7
  400524:	00f72023          	sw	x15,0(x14)
  400528:	00a787b3          	add	x15,x15,x10
  40052c:	41f7d713          	srai	x14,x15,0x1f
  400530:	01d75713          	srli	x14,x14,0x1d
  400534:	00e787b3          	add	x15,x15,x14
  400538:	0077f793          	andi	x15,x15,7
  40053c:	40e787b3          	sub	x15,x15,x14
  400540:	00700713          	addi	x14,x0,7
  400544:	12f76063          	bltu	x14,x15,400664 <fibr+0x178>
  400548:	00279793          	slli	x15,x15,0x2
  40054c:	00400737          	lui	x14,0x400
  400550:	6cc70713          	addi	x14,x14,1740 # 4006cc <main+0x20>
  400554:	00e787b3          	add	x15,x15,x14
  400558:	0007a783          	lw	x15,0(x15)
  40055c:	00078067          	jalr	x0,0(x15)
  400560:	fff50513          	addi	x10,x10,-1
  400564:	f89ff0ef          	jal	x1,4004ec <fibr>
  400568:	00050493          	addi	x9,x10,0
  40056c:	ffe40513          	addi	x10,x8,-2
  400570:	f7dff0ef          	jal	x1,4004ec <fibr>
  400574:	00a484b3          	add	x9,x9,x10
  400578:	00400793          	addi	x15,x0,4
  40057c:	0e87c863          	blt	x15,x8,40066c <fibr+0x180>
  400580:	00048413          	addi	x8,x9,0
  400584:	00040513          	addi	x10,x8,0
  400588:	00c12083          	lw	x1,12(x2)
  40058c:	00812403          	lw	x8,8(x2)
  400590:	00412483          	lw	x9,4(x2)
  400594:	00012903          	lw	x18,0(x2)
  400598:	01010113          	addi	x2,x2,16
  40059c:	00008067          	jalr	x0,0(x1)
  4005a0:	fff50513          	addi	x10,x10,-1
  4005a4:	f49ff0ef          	jal	x1,4004ec <fibr>
  4005a8:	00050493          	addi	x9,x10,0
  4005ac:	ffe40513          	addi	x10,x8,-2
  4005b0:	f3dff0ef          	jal	x1,4004ec <fibr>
  4005b4:	00a484b3          	add	x9,x9,x10
  4005b8:	fc1ff06f          	jal	x0,400578 <fibr+0x8c>
  4005bc:	fff50513          	addi	x10,x10,-1
  4005c0:	f2dff0ef          	jal	x1,4004ec <fibr>
  4005c4:	00050493          	addi	x9,x10,0
  4005c8:	ffe40513          	addi	x10,x8,-2
  4005cc:	f21ff0ef          	jal	x1,4004ec <fibr>
  4005d0:	00a484b3          	add	x9,x9,x10
  4005d4:	fa5ff06f          	jal	x0,400578 <fibr+0x8c>
  4005d8:	fff50513          	addi	x10,x10,-1
  4005dc:	f11ff0ef          	jal	x1,4004ec <fibr>
  4005e0:	00050493          	addi	x9,x10,0
  4005e4:	ffe40513          	addi	x10,x8,-2
  4005e8:	f05ff0ef          	jal	x1,4004ec <fibr>
  4005ec:	00a484b3          	add	x9,x9,x10
  4005f0:	f89ff06f          	jal	x0,400578 <fibr+0x8c>
  4005f4:	fff50513          	addi	x10,x10,-1
  4005f8:	ef5ff0ef          	jal	x1,4004ec <fibr>
  4005fc:	00050493          	addi	x9,x10,0
  400600:	ffe40513          	addi	x10,x8,-2
  400604:	ee9ff0ef          	jal	x1,4004ec <fibr>
  400608:	00a484b3          	add	x9,x9,x10
  40060c:	f6dff06f          	jal	x0,400578 <fibr+0x8c>
  400610:	fff50513          	addi	x10,x10,-1
  400614:	ed9ff0ef          	jal	x1,4004ec <fibr>
  400618:	00050493          	addi	x9,x10,0
  40061c:	ffe40513          	addi	x10,x8,-2
  400620:	ecdff0ef          	jal	x1,4004ec <fibr>
  400624:	00a484b3          	add	x9,x9,x10
  400628:	f51ff06f          	jal	x0,400578 <fibr+0x8c>
  40062c:	fff50513          	addi	x10,x10,-1
  400630:	ebdff0ef          	jal	x1,4004ec <fibr>
  400634:	00050493          	addi	x9,x10,0
  400638:	ffe40513          	addi	x10,x8,-2
  40063c:	eb1ff0ef          	jal	x1,4004ec <fibr>
  400640:	00a484b3          	add	x9,x9,x10
  400644:	f35ff06f          	jal	x0,400578 <fibr+0x8c>
  400648:	fff50513          	addi	x10,x10,-1
  40064c:	ea1ff0ef          	jal	x1,4004ec <fibr>
  400650:	00050493          	addi	x9,x10,0
  400654:	ffe40513          	addi	x10,x8,-2
  400658:	e95ff0ef          	jal	x1,4004ec <fibr>
  40065c:	00a484b3          	add	x9,x9,x10
  400660:	f19ff06f          	jal	x0,400578 <fibr+0x8c>
  400664:	fff00493          	addi	x9,x0,-1
  400668:	f11ff06f          	jal	x0,400578 <fibr+0x8c>
  40066c:	00241793          	slli	x15,x8,0x2
  400670:	00878433          	add	x8,x15,x8
  400674:	00141413          	slli	x8,x8,0x1
  400678:	00040513          	addi	x10,x8,0
  40067c:	a89ff0ef          	jal	x1,400104 <fibi>
  400680:	00050913          	addi	x18,x10,0
  400684:	00040513          	addi	x10,x8,0
  400688:	00000097          	auipc	x1,0x0
  40068c:	de0080e7          	jalr	x1,-544(x1) # 400468 <fibm>
  400690:	00a91a63          	bne	x18,x10,4006a4 <fibr+0x1b8>
  400694:	00048413          	addi	x8,x9,0
  400698:	eedff06f          	jal	x0,400584 <fibr+0x98>
  40069c:	ffc00413          	addi	x8,x0,-4
  4006a0:	ee5ff06f          	jal	x0,400584 <fibr+0x98>
  4006a4:	ffb00413          	addi	x8,x0,-5
  4006a8:	eddff06f          	jal	x0,400584 <fibr+0x98>

004006ac <main>:
  4006ac:	ff010113          	addi	x2,x2,-16
  4006b0:	00112623          	sw	x1,12(x2)
  4006b4:	00a00513          	addi	x10,x0,10
  4006b8:	00000097          	auipc	x1,0x0
  4006bc:	e34080e7          	jalr	x1,-460(x1) # 4004ec <fibr>
  4006c0:	00c12083          	lw	x1,12(x2)
  4006c4:	01010113          	addi	x2,x2,16
  4006c8:	00008067          	jalr	x0,0(x1)
  4006cc:	0560                	c.addi4spn	x8,x2,652
  4006ce:	0040                	c.addi4spn	x8,x2,4
  4006d0:	05a0                	c.addi4spn	x8,x2,712
  4006d2:	0040                	c.addi4spn	x8,x2,4
  4006d4:	05bc                	c.addi4spn	x15,x2,712
  4006d6:	0040                	c.addi4spn	x8,x2,4
  4006d8:	05d8                	c.addi4spn	x14,x2,708
  4006da:	0040                	c.addi4spn	x8,x2,4
  4006dc:	05f4                	c.addi4spn	x13,x2,716
  4006de:	0040                	c.addi4spn	x8,x2,4
  4006e0:	0610                	c.addi4spn	x12,x2,768
  4006e2:	0040                	c.addi4spn	x8,x2,4
  4006e4:	062c                	c.addi4spn	x11,x2,776
  4006e6:	0040                	c.addi4spn	x8,x2,4
  4006e8:	0648                	c.addi4spn	x10,x2,772
  4006ea:	0040                	c.addi4spn	x8,x2,4
